target datalayout = "e-m:e-p270:32:32-p271:32:32-p272:64:64-i64:64-i128:128-f80:128-n8:16:32:64-S128"
target triple = "x86_64-pc-linux-gnu"

%class.Node_Array = type { ptr, i32, ptr }
%class.Node_List = type <{ %class.Node_Array, i32, [4 x i8] }>
%class.Block = type { %class.CFGElement, %class.Node_List, %class.Block_Array, i32, i32, i32, ptr, ptr, i32, i32, i32, i32, i32, i32, i32, i32, i8, i32 }
%class.CFGElement = type { ptr, double }
%class.Block_Array = type { i32, ptr, ptr }
%class.Node = type <{ ptr, ptr, ptr, i32, i32, i32, i32, i32, i32, i32, [4 x i8] }>

; Function Attrs: mustprogress nounwind uwtable
define linkonce_odr hidden noundef i32 @_ZNK9Node_List4sizeEv(ptr noundef nonnull align 8 dereferenceable(28) %0) #1 comdat align 2 {
  %2 = alloca ptr, align 8
  store ptr %0, ptr %2, align 8
  %3 = load ptr, ptr %2, align 8
  %4 = getelementptr inbounds %class.Node_List, ptr %3, i32 0, i32 1
  %5 = load i32, ptr %4, align 8
  ret i32 %5
}

; Function Attrs: mustprogress nounwind uwtable
define linkonce_odr hidden noundef ptr @_ZNK10Node_ArrayixEj(ptr noundef nonnull align 8 dereferenceable(24) %0, i32 noundef %1) #1 comdat align 2 {
  %3 = alloca ptr, align 8
  %4 = alloca i32, align 4
  store ptr %0, ptr %3, align 8
  store i32 %1, ptr %4, align 4
  %5 = load ptr, ptr %3, align 8
  %6 = load i32, ptr %4, align 4
  %7 = getelementptr inbounds %class.Node_Array, ptr %5, i32 0, i32 1
  %8 = load i32, ptr %7, align 8
  %9 = icmp ult i32 %6, %8
  br i1 %9, label %10, label %17

10:                                               ; preds = %2
  %11 = getelementptr inbounds %class.Node_Array, ptr %5, i32 0, i32 2
  %12 = load ptr, ptr %11, align 8
  %13 = load i32, ptr %4, align 4
  %14 = zext i32 %13 to i64
  %15 = getelementptr inbounds ptr, ptr %12, i64 %14
  %16 = load ptr, ptr %15, align 8
  br label %18

17:                                               ; preds = %2
  br label %18

18:                                               ; preds = %17, %10
  %19 = phi ptr [ %16, %10 ], [ null, %17 ]
  ret ptr %19
}

; Function Attrs: mustprogress nounwind uwtable
define linkonce_odr hidden noundef ptr @_ZNK11Block_ArrayixEj(ptr noundef nonnull align 8 dereferenceable(24) %0, i32 noundef %1) #1 comdat align 2 {
  %3 = alloca ptr, align 8
  %4 = alloca i32, align 4
  store ptr %0, ptr %3, align 8
  store i32 %1, ptr %4, align 4
  %5 = load ptr, ptr %3, align 8
  %6 = getelementptr inbounds %class.Block_Array, ptr %5, i32 0, i32 2
  %7 = load ptr, ptr %6, align 8
  %8 = load i32, ptr %4, align 4
  %9 = zext i32 %8 to i64
  %10 = getelementptr inbounds ptr, ptr %7, i64 %9
  %11 = load ptr, ptr %10, align 8
  ret ptr %11
}

; Function Attrs: mustprogress nounwind uwtable
define linkonce_odr hidden noundef i32 @_ZNK5Block7end_idxEv(ptr noundef nonnull align 8 dereferenceable(144) %0) #1 comdat align 2 {
  %2 = alloca ptr, align 8
  %3 = alloca i32, align 4
  %4 = alloca ptr, align 8
  store ptr %0, ptr %2, align 8
  %5 = load ptr, ptr %2, align 8
  %6 = getelementptr inbounds %class.Block, ptr %5, i32 0, i32 1
  %7 = call noundef i32 @_ZNK9Node_List4sizeEv(ptr noundef nonnull align 8 dereferenceable(28) %6)
  %8 = sub i32 %7, 1
  store i32 %8, ptr %3, align 4
  %9 = getelementptr inbounds %class.Block, ptr %5, i32 0, i32 1
  %10 = load i32, ptr %3, align 4
  %11 = call noundef ptr @_ZNK10Node_ArrayixEj(ptr noundef nonnull align 8 dereferenceable(24) %9, i32 noundef %10)
  store ptr %11, ptr %4, align 8
  %12 = load ptr, ptr %4, align 8
  %13 = load ptr, ptr %12, align 8
  %14 = getelementptr inbounds ptr, ptr %13, i64 4
  %15 = load ptr, ptr %14, align 8
  %16 = call noundef ptr %15(ptr noundef nonnull align 8 dereferenceable(52) %12)
  %17 = load ptr, ptr %4, align 8
  %18 = icmp eq ptr %16, %17
  br i1 %18, label %19, label %21

19:                                               ; preds = %1
  %20 = load i32, ptr %3, align 4
  br label %26

21:                                               ; preds = %1
  %22 = load i32, ptr %3, align 4
  %23 = getelementptr inbounds %class.Block, ptr %5, i32 0, i32 3
  %24 = load i32, ptr %23, align 8
  %25 = sub i32 %22, %24
  br label %26

26:                                               ; preds = %21, %19
  %27 = phi i32 [ %20, %19 ], [ %25, %21 ]
  ret i32 %27
}

; Function Attrs: mustprogress nounwind uwtable
define linkonce_odr hidden noundef ptr @_ZNK5Block8get_nodeEj(ptr noundef nonnull align 8 dereferenceable(144) %0, i32 noundef %1) #1 comdat align 2 {
  %3 = alloca ptr, align 8
  %4 = alloca i32, align 4
  store ptr %0, ptr %3, align 8
  store i32 %1, ptr %4, align 4
  %5 = load ptr, ptr %3, align 8
  %6 = getelementptr inbounds %class.Block, ptr %5, i32 0, i32 1
  %7 = load i32, ptr %4, align 4
  %8 = call noundef ptr @_ZNK10Node_ArrayixEj(ptr noundef nonnull align 8 dereferenceable(24) %6, i32 noundef %7)
  ret ptr %8
}

; Function Attrs: mustprogress nounwind uwtable
define linkonce_odr hidden noundef ptr @_ZNK4Node2inEj(ptr noundef nonnull align 8 dereferenceable(52) %0, i32 noundef %1) #1 comdat align 2 {
  %3 = alloca ptr, align 8
  %4 = alloca i32, align 4
  store ptr %0, ptr %3, align 8
  store i32 %1, ptr %4, align 4
  %5 = load ptr, ptr %3, align 8
  %6 = getelementptr inbounds %class.Node, ptr %5, i32 0, i32 1
  %7 = load ptr, ptr %6, align 8
  %8 = load i32, ptr %4, align 4
  %9 = zext i32 %8 to i64
  %10 = getelementptr inbounds ptr, ptr %7, i64 %9
  %11 = load ptr, ptr %10, align 8
  ret ptr %11
}

; Function Attrs: mustprogress nounwind uwtable
define linkonce_odr hidden noundef zeroext i1 @_ZNK4Node16is_MachNullCheckEv(ptr noundef nonnull align 8 dereferenceable(52) %0) #1 comdat align 2 {
  %2 = alloca ptr, align 8
  store ptr %0, ptr %2, align 8
  %3 = load ptr, ptr %2, align 8
  %4 = getelementptr inbounds %class.Node, ptr %3, i32 0, i32 8
  %5 = load i32, ptr %4, align 4
  %6 = and i32 %5, 127
  %7 = icmp eq i32 %6, 74
  ret i1 %7
}

; Function Attrs: mustprogress nounwind uwtable
define linkonce_odr hidden noundef ptr @_ZNK5Block3endEv(ptr noundef nonnull align 8 dereferenceable(144) %0) #1 comdat align 2 {
  %2 = alloca ptr, align 8
  store ptr %0, ptr %2, align 8
  %3 = load ptr, ptr %2, align 8
  %4 = getelementptr inbounds %class.Block, ptr %3, i32 0, i32 1
  %5 = call noundef i32 @_ZNK5Block7end_idxEv(ptr noundef nonnull align 8 dereferenceable(144) %3)
  %6 = call noundef ptr @_ZNK10Node_ArrayixEj(ptr noundef nonnull align 8 dereferenceable(24) %4, i32 noundef %5)
  ret ptr %6
}

; Function Attrs: mustprogress nounwind uwtable
define hidden noundef i32 @_ZN12PhaseChaitin9split_DEFEP4NodeP5BlockijPS1_S4_13GrowableArrayIjEi(ptr noundef nonnull align 8 dereferenceable(364) %0, ptr noundef %1, ptr noundef %2, i32 noundef %3, i32 noundef %4, ptr noundef %5, ptr noundef %6, ptr noundef %7, i32 noundef %8) #1 align 2 {
  %10 = alloca i32, align 4
  %11 = alloca ptr, align 8
  %12 = alloca ptr, align 8
  %13 = alloca ptr, align 8
  %14 = alloca i32, align 4
  %15 = alloca i32, align 4
  %16 = alloca ptr, align 8
  %17 = alloca ptr, align 8
  %18 = alloca ptr, align 8
  %19 = alloca i32, align 4
  %20 = alloca ptr, align 8
  %21 = alloca ptr, align 8
  store ptr %0, ptr %11, align 8
  store ptr %1, ptr %12, align 8
  store ptr %2, ptr %13, align 8
  store i32 %3, ptr %14, align 4
  store i32 %4, ptr %15, align 4
  store ptr %5, ptr %16, align 8
  store ptr %6, ptr %17, align 8
  store ptr %7, ptr %18, align 8
  store i32 %8, ptr %19, align 4
  %22 = load ptr, ptr %11, align 8
  %23 = load ptr, ptr %13, align 8
  %24 = call noundef ptr @_ZNK5Block3endEv(ptr noundef nonnull align 8 dereferenceable(144) %23)
  store ptr %24, ptr %20, align 8
  %25 = load ptr, ptr %20, align 8
  %26 = call noundef zeroext i1 @_ZNK4Node16is_MachNullCheckEv(ptr noundef nonnull align 8 dereferenceable(52) %25)
  br i1 %26, label %27, label %53

27:                                               ; preds = %9
  %28 = load ptr, ptr %20, align 8
  %29 = call noundef ptr @_ZNK4Node2inEj(ptr noundef nonnull align 8 dereferenceable(52) %28, i32 noundef 1)
  %30 = load ptr, ptr %12, align 8
  %31 = icmp eq ptr %29, %30
  br i1 %31, label %32, label %53

32:                                               ; preds = %27
  %33 = load ptr, ptr %12, align 8
  %34 = load ptr, ptr %13, align 8
  %35 = load i32, ptr %14, align 4
  %36 = call noundef ptr @_ZNK5Block8get_nodeEj(ptr noundef nonnull align 8 dereferenceable(144) %34, i32 noundef %35)
  %37 = icmp eq ptr %33, %36
  br i1 %37, label %38, label %53

38:                                               ; preds = %32
  %39 = load ptr, ptr %13, align 8
  %40 = getelementptr inbounds %class.Block, ptr %39, i32 0, i32 2
  %41 = load ptr, ptr %13, align 8
  %42 = load ptr, ptr %13, align 8
  %43 = call noundef i32 @_ZNK5Block7end_idxEv(ptr noundef nonnull align 8 dereferenceable(144) %42)
  %44 = add i32 %43, 1
  %45 = call noundef ptr @_ZNK5Block8get_nodeEj(ptr noundef nonnull align 8 dereferenceable(144) %41, i32 noundef %44)
  %46 = load ptr, ptr %45, align 8
  %47 = getelementptr inbounds ptr, ptr %46, i64 0
  %48 = load ptr, ptr %47, align 8
  %49 = call noundef i32 %48(ptr noundef nonnull align 8 dereferenceable(52) %45)
  %50 = icmp eq i32 %49, 180
  %51 = zext i1 %50 to i32
  %52 = call noundef ptr @_ZNK11Block_ArrayixEj(ptr noundef nonnull align 8 dereferenceable(24) %40, i32 noundef %51)
  store ptr %52, ptr %13, align 8
  store i32 0, ptr %14, align 4
  br label %53

53:                                               ; preds = %38, %32, %27, %9
  %54 = load ptr, ptr %12, align 8
  %55 = call noundef ptr @_ZN12PhaseChaitin18get_spillcopy_wideEN17MachSpillCopyNode9SpillTypeEP4NodeS3_j(ptr noundef nonnull align 8 dereferenceable(364) %22, i32 noundef 4, ptr noundef %54, ptr noundef null, i32 noundef 0)
  store ptr %55, ptr %21, align 8
  %56 = load ptr, ptr %21, align 8
  %57 = icmp ne ptr %56, null
  br i1 %57, label %59, label %58

58:                                               ; preds = %53
  store i32 0, ptr %10, align 4
  br label %77

59:                                               ; preds = %53
  %60 = load ptr, ptr %13, align 8
  %61 = load i32, ptr %14, align 4
  %62 = add nsw i32 %61, 1
  %63 = load ptr, ptr %21, align 8
  %64 = load i32, ptr %15, align 4
  %65 = add i32 %64, 1
  store i32 %65, ptr %15, align 4
  call void @_ZN12PhaseChaitin11insert_projEP5BlockjP4Nodej(ptr noundef nonnull align 8 dereferenceable(364) %22, ptr noundef %60, i32 noundef %62, ptr noundef %63, i32 noundef %64)
  %66 = load ptr, ptr %21, align 8
  %67 = load ptr, ptr %16, align 8
  %68 = load i32, ptr %19, align 4
  %69 = sext i32 %68 to i64
  %70 = getelementptr inbounds ptr, ptr %67, i64 %69
  store ptr %66, ptr %70, align 8
  %71 = load ptr, ptr %21, align 8
  %72 = load ptr, ptr %17, align 8
  %73 = load i32, ptr %19, align 4
  %74 = sext i32 %73 to i64
  %75 = getelementptr inbounds ptr, ptr %72, i64 %74
  store ptr %71, ptr %75, align 8
  %76 = load i32, ptr %15, align 4
  store i32 %76, ptr %10, align 4
  br label %77

77:                                               ; preds = %59, %58
  %78 = load i32, ptr %10, align 4
  ret i32 %78
}