; Function Attrs: mustprogress nounwind uwtable
define hidden noundef i32 @_ZN12PhaseChaitin9split_DEFEP4NodeP5BlockijPS1_S4_13GrowableArrayIjEi(ptr noundef nonnull align 8 dereferenceable(364) %0, ptr noundef %1, ptr noundef %2, i32 noundef %3, i32 noundef %4, ptr nocapture noundef writeonly %5, ptr nocapture noundef writeonly %6, ptr nocapture readnone %7, i32 noundef %8) local_unnamed_addr #0 align 2 {
  %10 = getelementptr inbounds i8, ptr %2, i64 40
  %11 = load i32, ptr %10, align 8
  %12 = add i32 %11, -1
  %13 = getelementptr inbounds i8, ptr %2, i64 24
  %14 = load i32, ptr %13, align 8
  %15 = icmp ugt i32 %14, %12
  br i1 %15, label %16, label %_ZNK5Block7end_idxEv.exit.i

16:                                               ; preds = %9
  %17 = getelementptr inbounds i8, ptr %2, i64 32
  %18 = load ptr, ptr %17, align 8
  %19 = zext i32 %12 to i64
  %20 = getelementptr inbounds ptr, ptr %18, i64 %19
  %21 = load ptr, ptr %20, align 8
  br label %_ZNK5Block7end_idxEv.exit.i

_ZNK5Block7end_idxEv.exit.i:                      ; preds = %16, %9
  %22 = phi ptr [ %21, %16 ], [ null, %9 ]
  %23 = load ptr, ptr %22, align 8
  %24 = getelementptr inbounds i8, ptr %23, i64 32
  %25 = load ptr, ptr %24, align 8
  %26 = tail call noundef ptr %25(ptr noundef nonnull align 8 dereferenceable(52) %22) #9
  %27 = icmp eq ptr %26, %22
  %28 = getelementptr inbounds i8, ptr %2, i64 72
  %29 = load i32, ptr %28, align 8
  %30 = select i1 %27, i32 0, i32 %29
  %31 = sub i32 %12, %30
  %32 = load i32, ptr %13, align 8
  %33 = icmp ugt i32 %32, %31
  br i1 %33, label %34, label %_ZNK5Block3endEv.exit

34:                                               ; preds = %_ZNK5Block7end_idxEv.exit.i
  %35 = getelementptr inbounds i8, ptr %2, i64 32
  %36 = load ptr, ptr %35, align 8
  %37 = zext i32 %31 to i64
  %38 = getelementptr inbounds ptr, ptr %36, i64 %37
  %39 = load ptr, ptr %38, align 8
  br label %_ZNK5Block3endEv.exit

_ZNK5Block3endEv.exit:                            ; preds = %_ZNK5Block7end_idxEv.exit.i, %34
  %40 = phi ptr [ %39, %34 ], [ null, %_ZNK5Block7end_idxEv.exit.i ]
  %41 = getelementptr inbounds i8, ptr %40, i64 44
  %42 = load i32, ptr %41, align 4
  %43 = and i32 %42, 127
  %44 = icmp eq i32 %43, 74
  br i1 %44, label %45, label %97

45:                                               ; preds = %_ZNK5Block3endEv.exit
  %46 = getelementptr inbounds i8, ptr %40, i64 8
  %47 = load ptr, ptr %46, align 8
  %48 = getelementptr inbounds i8, ptr %47, i64 8
  %49 = load ptr, ptr %48, align 8
  %50 = icmp eq ptr %49, %1
  br i1 %50, label %51, label %97

51:                                               ; preds = %45
  %52 = icmp ugt i32 %32, %3
  br i1 %52, label %53, label %_ZNK5Block8get_nodeEj.exit

53:                                               ; preds = %51
  %54 = getelementptr inbounds i8, ptr %2, i64 32
  %55 = load ptr, ptr %54, align 8
  %56 = zext i32 %3 to i64
  %57 = getelementptr inbounds ptr, ptr %55, i64 %56
  %58 = load ptr, ptr %57, align 8
  br label %_ZNK5Block8get_nodeEj.exit

_ZNK5Block8get_nodeEj.exit:                       ; preds = %51, %53
  %59 = phi ptr [ %58, %53 ], [ null, %51 ]
  %60 = icmp eq ptr %59, %1
  br i1 %60, label %61, label %97

61:                                               ; preds = %_ZNK5Block8get_nodeEj.exit
  %62 = load i32, ptr %10, align 8
  %63 = add i32 %62, -1
  %64 = icmp ugt i32 %32, %63
  br i1 %64, label %65, label %_ZNK5Block7end_idxEv.exit

65:                                               ; preds = %61
  %66 = getelementptr inbounds i8, ptr %2, i64 32
  %67 = load ptr, ptr %66, align 8
  %68 = zext i32 %63 to i64
  %69 = getelementptr inbounds ptr, ptr %67, i64 %68
  %70 = load ptr, ptr %69, align 8
  br label %_ZNK5Block7end_idxEv.exit

_ZNK5Block7end_idxEv.exit:                        ; preds = %61, %65
  %71 = phi ptr [ %70, %65 ], [ null, %61 ]
  %72 = load ptr, ptr %71, align 8
  %73 = getelementptr inbounds i8, ptr %72, i64 32
  %74 = load ptr, ptr %73, align 8
  %75 = tail call noundef ptr %74(ptr noundef nonnull align 8 dereferenceable(52) %71) #9
  %76 = icmp eq ptr %75, %71
  %77 = load i32, ptr %28, align 8
  %78 = select i1 %76, i32 0, i32 %77
  %79 = sub i32 %63, %78
  %80 = add i32 %79, 1
  %81 = load i32, ptr %13, align 8
  %82 = icmp ugt i32 %81, %80
  tail call void @llvm.assume(i1 %82)
  %83 = getelementptr inbounds i8, ptr %2, i64 32
  %84 = load ptr, ptr %83, align 8
  %85 = zext i32 %80 to i64
  %86 = getelementptr inbounds ptr, ptr %84, i64 %85
  %87 = load ptr, ptr %86, align 8
  %88 = load ptr, ptr %87, align 8
  %89 = load ptr, ptr %88, align 8
  %90 = tail call noundef i32 %89(ptr noundef nonnull align 8 dereferenceable(52) %87) #9
  %91 = icmp eq i32 %90, 180
  %92 = getelementptr inbounds i8, ptr %2, i64 64
  %93 = load ptr, ptr %92, align 8
  %94 = zext i1 %91 to i64
  %95 = getelementptr inbounds ptr, ptr %93, i64 %94
  %96 = load ptr, ptr %95, align 8
  br label %97

97:                                               ; preds = %_ZNK5Block7end_idxEv.exit, %_ZNK5Block8get_nodeEj.exit, %45, %_ZNK5Block3endEv.exit
  %.025 = phi i32 [ 0, %_ZNK5Block7end_idxEv.exit ], [ %3, %_ZNK5Block8get_nodeEj.exit ], [ %3, %45 ], [ %3, %_ZNK5Block3endEv.exit ]
  %.024 = phi ptr [ %96, %_ZNK5Block7end_idxEv.exit ], [ %2, %_ZNK5Block8get_nodeEj.exit ], [ %2, %45 ], [ %2, %_ZNK5Block3endEv.exit ]
  %98 = tail call noundef ptr @_ZN12PhaseChaitin18get_spillcopy_wideEN17MachSpillCopyNode9SpillTypeEP4NodeS3_j(ptr noundef nonnull align 8 dereferenceable(364) %0, i32 noundef 4, ptr noundef %1, ptr noundef null, i32 noundef 0)
  %.not = icmp eq ptr %98, null
  br i1 %.not, label %105, label %99

99:                                               ; preds = %97
  %100 = add nsw i32 %.025, 1
  %101 = add i32 %4, 1
  tail call void @_ZN12PhaseChaitin11insert_projEP5BlockjP4Nodej(ptr noundef nonnull align 8 dereferenceable(364) %0, ptr noundef %.024, i32 noundef %100, ptr noundef nonnull %98, i32 noundef %4)
  %102 = sext i32 %8 to i64
  %103 = getelementptr inbounds ptr, ptr %5, i64 %102
  store ptr %98, ptr %103, align 8
  %104 = getelementptr inbounds ptr, ptr %6, i64 %102
  store ptr %98, ptr %104, align 8
  br label %105

105:                                              ; preds = %97, %99
  %.0 = phi i32 [ %101, %99 ], [ 0, %97 ]
  ret i32 %.0
}